target datalayout = "e-m:e-p270:32:32-p271:32:32-p272:64:64-i64:64-i128:128-f80:128-n8:16:32:64-S128"
target triple = "x86_64-pc-linux-gnu"

%struct.forward = type { %struct.slurm_node_alias_addrs_t, i16, i16, ptr, i32, i16, i16 }
%struct.slurm_node_alias_addrs_t = type { i64, ptr, ptr, i32, ptr }
%struct.sockaddr_storage = type { i16, [118 x i8], i64 }
%struct.slurm_msg = type { %struct.sockaddr_storage, ptr, i32, i32, i32, i8, i32, i8, i32, ptr, ptr, i32, ptr, ptr, i16, i8, i16, i16, %struct.forward, ptr, %struct.sockaddr_storage, ptr }
%struct.job_sbcast_cred_msg = type { i32, ptr, ptr }

; Function Attrs: nounwind uwtable
define internal void @_pack_job_sbcast_cred_msg(ptr noundef %0, ptr noundef %1) #0 {
  %3 = alloca ptr, align 8
  %4 = alloca ptr, align 8
  %5 = alloca ptr, align 8
  %6 = alloca i32, align 4
  store ptr %0, ptr %3, align 8
  store ptr %1, ptr %4, align 8
  call void @llvm.lifetime.start.p0(i64 8, ptr %5) #6
  %7 = load ptr, ptr %3, align 8
  %8 = getelementptr inbounds nuw %struct.slurm_msg, ptr %7, i32 0, i32 13
  %9 = load ptr, ptr %8, align 8
  store ptr %9, ptr %5, align 8
  %10 = load ptr, ptr %5, align 8
  %11 = getelementptr inbounds nuw %struct.job_sbcast_cred_msg, ptr %10, i32 0, i32 0
  %12 = load i32, ptr %11, align 8
  %13 = load ptr, ptr %4, align 8
  call void @pack32(i32 noundef %12, ptr noundef %13)
  br label %14

14:                                               ; preds = %2
  call void @llvm.lifetime.start.p0(i64 4, ptr %6) #6
  store i32 0, ptr %6, align 4
  %15 = load ptr, ptr %5, align 8
  %16 = getelementptr inbounds nuw %struct.job_sbcast_cred_msg, ptr %15, i32 0, i32 1
  %17 = load ptr, ptr %16, align 8
  %18 = icmp ne ptr %17, null
  br i1 %18, label %19, label %26

19:                                               ; preds = %14
  %20 = load ptr, ptr %5, align 8
  %21 = getelementptr inbounds nuw %struct.job_sbcast_cred_msg, ptr %20, i32 0, i32 1
  %22 = load ptr, ptr %21, align 8
  %23 = call i64 @strlen(ptr noundef %22) #7
  %24 = trunc i64 %23 to i32
  %25 = add i32 %24, 1
  store i32 %25, ptr %6, align 4
  br label %26

26:                                               ; preds = %19, %14
  %27 = load ptr, ptr %5, align 8
  %28 = getelementptr inbounds nuw %struct.job_sbcast_cred_msg, ptr %27, i32 0, i32 1
  %29 = load ptr, ptr %28, align 8
  %30 = load i32, ptr %6, align 4
  %31 = load ptr, ptr %4, align 8
  call void @packmem(ptr noundef %29, i32 noundef %30, ptr noundef %31)
  call void @llvm.lifetime.end.p0(i64 4, ptr %6) #6
  br label %32

32:                                               ; preds = %26
  br label %33

33:                                               ; preds = %32
  %34 = load ptr, ptr %4, align 8
  call void @pack32(i32 noundef 0, ptr noundef %34)
  %35 = load ptr, ptr %5, align 8
  %36 = getelementptr inbounds nuw %struct.job_sbcast_cred_msg, ptr %35, i32 0, i32 2
  %37 = load ptr, ptr %36, align 8
  %38 = load ptr, ptr %4, align 8
  %39 = load ptr, ptr %3, align 8
  %40 = getelementptr inbounds nuw %struct.slurm_msg, ptr %39, i32 0, i32 17
  %41 = load i16, ptr %40, align 2
  call void @pack_sbcast_cred(ptr noundef %37, ptr noundef %38, i16 noundef zeroext %41)
  call void @llvm.lifetime.end.p0(i64 8, ptr %5) #6
  ret void
}