; Function Attrs: nounwind uwtable
define internal fastcc void @_pack_job_sbcast_cred_msg(ptr noundef readonly captures(none) %0, ptr noundef %1) unnamed_addr #0 {
  %3 = getelementptr inbounds nuw i8, ptr %0, i64 200
  %4 = load ptr, ptr %3, align 8
  %5 = load i32, ptr %4, align 8
  tail call void @pack32(i32 noundef %5, ptr noundef %1) #7
  %6 = getelementptr inbounds nuw i8, ptr %4, i64 8
  %7 = load ptr, ptr %6, align 8
  %.not = icmp eq ptr %7, null
  br i1 %.not, label %12, label %8

8:                                                ; preds = %2
  %9 = tail call i64 @strlen(ptr noundef nonnull dereferenceable(1) %7) #8
  %10 = trunc i64 %9 to i32
  %11 = add i32 %10, 1
  br label %12

12:                                               ; preds = %8, %2
  %.0 = phi i32 [ %11, %8 ], [ 0, %2 ]
  tail call void @packmem(ptr noundef %7, i32 noundef %.0, ptr noundef %1) #7
  tail call void @pack32(i32 noundef 0, ptr noundef %1) #7
  %13 = getelementptr inbounds nuw i8, ptr %4, i64 16
  %14 = load ptr, ptr %13, align 8
  %15 = getelementptr inbounds nuw i8, ptr %0, i64 214
  %16 = load i16, ptr %15, align 2
  tail call void @pack_sbcast_cred(ptr noundef %14, ptr noundef %1, i16 noundef zeroext %16) #7
  ret void
}